; Function Attrs: mustprogress uwtable
define internal fastcc noundef range(i32 0, 3) i32 @_ZN6google8protobuf8compiler4java12_GLOBAL__N_117CheckNameEqualityESt17basic_string_viewIcSt11char_traitsIcEES7_(i64 %a.coerce0, ptr %a.coerce1, i64 %b.coerce0, ptr %b.coerce1) unnamed_addr #3 personality ptr @__gxx_personality_v0 {
entry:
  %ref.tmp = alloca %"class.std::__cxx11::basic_string", align 8
  %ref.tmp1 = alloca %"class.std::__cxx11::basic_string", align 8
  call void @_ZN4absl12lts_2023080215AsciiStrToUpperB5cxx11ESt17basic_string_viewIcSt11char_traitsIcEE(ptr nonnull sret(%"class.std::__cxx11::basic_string") align 8 %ref.tmp, i64 %a.coerce0, ptr %a.coerce1)
  invoke void @_ZN4absl12lts_2023080215AsciiStrToUpperB5cxx11ESt17basic_string_viewIcSt11char_traitsIcEE(ptr nonnull sret(%"class.std::__cxx11::basic_string") align 8 %ref.tmp1, i64 %b.coerce0, ptr %b.coerce1)
          to label %invoke.cont unwind label %lpad

invoke.cont:                                      ; preds = %entry
  %call.i = call noundef i64 @_ZNKSt7__cxx1112basic_stringIcSt11char_traitsIcESaIcEE4sizeEv(ptr noundef nonnull align 8 dereferenceable(32) %ref.tmp) #18
  %call1.i = call noundef i64 @_ZNKSt7__cxx1112basic_stringIcSt11char_traitsIcESaIcEE4sizeEv(ptr noundef nonnull align 8 dereferenceable(32) %ref.tmp1) #18
  %cmp.i = icmp eq i64 %call.i, %call1.i
  br i1 %cmp.i, label %land.rhs.i, label %return.critedge

land.rhs.i:                                       ; preds = %invoke.cont
  %call2.i = call noundef ptr @_ZNKSt7__cxx1112basic_stringIcSt11char_traitsIcESaIcEE4dataEv(ptr noundef nonnull align 8 dereferenceable(32) %ref.tmp) #18
  %call3.i = call noundef ptr @_ZNKSt7__cxx1112basic_stringIcSt11char_traitsIcESaIcEE4dataEv(ptr noundef nonnull align 8 dereferenceable(32) %ref.tmp1) #18
  %call4.i = call noundef i64 @_ZNKSt7__cxx1112basic_stringIcSt11char_traitsIcESaIcEE4sizeEv(ptr noundef nonnull align 8 dereferenceable(32) %ref.tmp) #18
  %cmp.i.i = icmp eq i64 %call4.i, 0
  br i1 %cmp.i.i, label %if.then.critedge, label %if.end.i.i

if.end.i.i:                                       ; preds = %land.rhs.i
  %bcmp.i = call i32 @bcmp(ptr %call2.i, ptr %call3.i, i64 %call4.i)
  %0 = icmp eq i32 %bcmp.i, 0
  call void @_ZNSt7__cxx1112basic_stringIcSt11char_traitsIcESaIcEED1Ev(ptr noundef nonnull align 8 dereferenceable(32) %ref.tmp1) #18
  call void @_ZNSt7__cxx1112basic_stringIcSt11char_traitsIcESaIcEED1Ev(ptr noundef nonnull align 8 dereferenceable(32) %ref.tmp) #18
  br i1 %0, label %if.then, label %return

if.then.critedge:                                 ; preds = %land.rhs.i
  call void @_ZNSt7__cxx1112basic_stringIcSt11char_traitsIcESaIcEED1Ev(ptr noundef nonnull align 8 dereferenceable(32) %ref.tmp1) #18
  call void @_ZNSt7__cxx1112basic_stringIcSt11char_traitsIcESaIcEED1Ev(ptr noundef nonnull align 8 dereferenceable(32) %ref.tmp) #18
  br label %if.then

if.then:                                          ; preds = %if.then.critedge, %if.end.i.i
  %cmp.i3 = icmp eq i64 %a.coerce0, %b.coerce0
  br i1 %cmp.i3, label %land.rhs.i4, label %_ZSteqIcSt11char_traitsIcEEbSt17basic_string_viewIT_T0_ES5_.exit.thread

land.rhs.i4:                                      ; preds = %if.then
  %cmp.i2.i.i = icmp eq i64 %a.coerce0, 0
  br i1 %cmp.i2.i.i, label %return, label %_ZNSt11char_traitsIcE7compareEPKcS2_m.exit.i.i

_ZNSt11char_traitsIcE7compareEPKcS2_m.exit.i.i:   ; preds = %land.rhs.i4
  %bcmp.i5 = call i32 @bcmp(ptr %a.coerce1, ptr %b.coerce1, i64 %a.coerce0)
  %cmp.i.i6 = icmp eq i32 %bcmp.i5, 0
  br i1 %cmp.i.i6, label %return, label %_ZSteqIcSt11char_traitsIcEEbSt17basic_string_viewIT_T0_ES5_.exit.thread

_ZSteqIcSt11char_traitsIcEEbSt17basic_string_viewIT_T0_ES5_.exit.thread: ; preds = %if.then, %_ZNSt11char_traitsIcE7compareEPKcS2_m.exit.i.i
  br label %return

lpad:                                             ; preds = %entry
  %1 = landingpad { ptr, i32 }
          cleanup
  call void @_ZNSt7__cxx1112basic_stringIcSt11char_traitsIcESaIcEED1Ev(ptr noundef nonnull align 8 dereferenceable(32) %ref.tmp) #18
  resume { ptr, i32 } %1

return.critedge:                                  ; preds = %invoke.cont
  call void @_ZNSt7__cxx1112basic_stringIcSt11char_traitsIcESaIcEED1Ev(ptr noundef nonnull align 8 dereferenceable(32) %ref.tmp1) #18
  call void @_ZNSt7__cxx1112basic_stringIcSt11char_traitsIcESaIcEED1Ev(ptr noundef nonnull align 8 dereferenceable(32) %ref.tmp) #18
  br label %return

return:                                           ; preds = %return.critedge, %_ZSteqIcSt11char_traitsIcEEbSt17basic_string_viewIT_T0_ES5_.exit.thread, %_ZNSt11char_traitsIcE7compareEPKcS2_m.exit.i.i, %land.rhs.i4, %if.end.i.i
  %retval.0 = phi i32 [ 0, %if.end.i.i ], [ 2, %_ZSteqIcSt11char_traitsIcEEbSt17basic_string_viewIT_T0_ES5_.exit.thread ], [ 1, %_ZNSt11char_traitsIcE7compareEPKcS2_m.exit.i.i ], [ 1, %land.rhs.i4 ], [ 0, %return.critedge ]
  ret i32 %retval.0
}